; Function Attrs: nounwind uwtable
define ptr @l_Lean_Json_opt___at___private_Lean_Data_Lsp_LanguageFeatures_0__Lean_Lsp_toJsonCompletionItem____x40_Lean_Data_Lsp_LanguageFeatures___hyg_2414____spec__4(ptr noundef %0, ptr noundef %1) local_unnamed_addr #0 {
  %3 = ptrtoint ptr %1 to i64
  %4 = and i64 %3, 1
  %.not.i15 = icmp eq i64 %4, 0
  br i1 %.not.i15, label %8, label %5

5:                                                ; preds = %2
  %6 = lshr i64 %3, 1
  %7 = trunc i64 %6 to i32
  br label %lean_obj_tag.exit

8:                                                ; preds = %2
  %9 = getelementptr i8, ptr %1, i64 4
  %.val.i = load i32, ptr %9, align 4
  %10 = lshr i32 %.val.i, 24
  br label %lean_obj_tag.exit

lean_obj_tag.exit:                                ; preds = %5, %8
  %.0.i = phi i32 [ %7, %5 ], [ %10, %8 ]
  %11 = icmp eq i32 %.0.i, 0
  br i1 %11, label %12, label %22

12:                                               ; preds = %lean_obj_tag.exit
  %13 = ptrtoint ptr %0 to i64
  %14 = and i64 %13, 1
  %.not19 = icmp eq i64 %14, 0
  br i1 %.not19, label %15, label %lean_dec.exit

15:                                               ; preds = %12
  %16 = load i32, ptr %0, align 4, !tbaa !8
  %17 = icmp sgt i32 %16, 1
  br i1 %17, label %18, label %20, !prof !11

18:                                               ; preds = %15
  %19 = add nsw i32 %16, -1
  store i32 %19, ptr %0, align 4, !tbaa !8
  br label %lean_dec.exit

20:                                               ; preds = %15
  %.not.i = icmp eq i32 %16, 0
  br i1 %.not.i, label %lean_dec.exit, label %21

21:                                               ; preds = %20
  tail call void @lean_dec_ref_cold(ptr noundef nonnull %0) #9
  br label %lean_dec.exit

22:                                               ; preds = %lean_obj_tag.exit
  %23 = getelementptr inbounds nuw i8, ptr %1, i64 8
  %24 = load ptr, ptr %23, align 8, !tbaa !4
  %25 = ptrtoint ptr %24 to i64
  %26 = and i64 %25, 1
  %.not = icmp eq i64 %26, 0
  br i1 %.not, label %27, label %lean_inc.exit

27:                                               ; preds = %22
  %.val.i16 = load i32, ptr %24, align 4, !tbaa !8
  %28 = icmp sgt i32 %.val.i16, 0
  br i1 %28, label %29, label %31, !prof !11

29:                                               ; preds = %27
  %30 = add nuw i32 %.val.i16, 1
  store i32 %30, ptr %24, align 4, !tbaa !8
  br label %lean_inc.exit

31:                                               ; preds = %27
  %.not.i17 = icmp eq i32 %.val.i16, 0
  br i1 %.not.i17, label %lean_inc.exit, label %32

32:                                               ; preds = %31
  tail call void @lean_inc_ref_cold(ptr noundef nonnull %24) #9
  br label %lean_inc.exit

lean_inc.exit:                                    ; preds = %32, %31, %29, %22
  tail call void @lean_inc_heartbeat() #9
  %33 = tail call noalias ptr @mi_malloc_small(i64 noundef 24) #9
  %34 = icmp eq ptr %33, null
  br i1 %34, label %35, label %lean_alloc_ctor.exit

35:                                               ; preds = %lean_inc.exit
  tail call void @lean_internal_panic_out_of_memory() #10
  unreachable

lean_alloc_ctor.exit:                             ; preds = %lean_inc.exit
  %36 = getelementptr inbounds nuw i8, ptr %33, i64 4
  store i32 1, ptr %33, align 4, !tbaa !8
  store i32 131096, ptr %36, align 4
  %37 = getelementptr inbounds nuw i8, ptr %33, i64 8
  store ptr %0, ptr %37, align 8, !tbaa !4
  %38 = getelementptr inbounds nuw i8, ptr %33, i64 16
  store ptr %24, ptr %38, align 8, !tbaa !4
  tail call void @lean_inc_heartbeat() #9
  %39 = tail call noalias ptr @mi_malloc_small(i64 noundef 24) #9
  %40 = icmp eq ptr %39, null
  br i1 %40, label %41, label %lean_alloc_ctor.exit18

41:                                               ; preds = %lean_alloc_ctor.exit
  tail call void @lean_internal_panic_out_of_memory() #10
  unreachable

lean_alloc_ctor.exit18:                           ; preds = %lean_alloc_ctor.exit
  %42 = getelementptr inbounds nuw i8, ptr %39, i64 4
  store i32 1, ptr %39, align 4, !tbaa !8
  store i32 16908312, ptr %42, align 4
  %43 = getelementptr inbounds nuw i8, ptr %39, i64 8
  store ptr %33, ptr %43, align 8, !tbaa !4
  %44 = getelementptr inbounds nuw i8, ptr %39, i64 16
  store ptr inttoptr (i64 1 to ptr), ptr %44, align 8, !tbaa !4
  br label %lean_dec.exit

lean_dec.exit:                                    ; preds = %12, %18, %20, %21, %lean_alloc_ctor.exit18
  %.0 = phi ptr [ %39, %lean_alloc_ctor.exit18 ], [ inttoptr (i64 1 to ptr), %21 ], [ inttoptr (i64 1 to ptr), %20 ], [ inttoptr (i64 1 to ptr), %18 ], [ inttoptr (i64 1 to ptr), %12 ]
  ret ptr %.0
}